; ModuleID = '9/1362.c'
source_filename = "9/1362.c"
target datalayout = "e-m:e-p270:32:32-p271:32:32-p272:64:64-i64:64-f80:128-n8:16:32:64-S128"
target triple = "x86_64-pc-linux-gnu"

%struct.patient = type { i32, [12 x i8] }

@.str = private unnamed_addr constant [3 x i8] c"%d\00", align 1
@.str.1 = private unnamed_addr constant [3 x i8] c"%s\00", align 1
@.str.2 = private unnamed_addr constant [4 x i8] c"%s\0A\00", align 1

; Function Attrs: noinline nounwind uwtable
define dso_local void @swap(%struct.patient* %0, %struct.patient* %1) #0 {
  %3 = alloca %struct.patient*, align 8
  %4 = alloca %struct.patient*, align 8
  %5 = alloca %struct.patient, align 4
  store %struct.patient* %0, %struct.patient** %3, align 8
  store %struct.patient* %1, %struct.patient** %4, align 8
  %6 = load %struct.patient*, %struct.patient** %3, align 8
  %7 = bitcast %struct.patient* %5 to i8*
  %8 = bitcast %struct.patient* %6 to i8*
  call void @llvm.memcpy.p0i8.p0i8.i64(i8* align 4 %7, i8* align 4 %8, i64 16, i1 false)
  %9 = load %struct.patient*, %struct.patient** %3, align 8
  %10 = load %struct.patient*, %struct.patient** %4, align 8
  %11 = bitcast %struct.patient* %9 to i8*
  %12 = bitcast %struct.patient* %10 to i8*
  call void @llvm.memcpy.p0i8.p0i8.i64(i8* align 4 %11, i8* align 4 %12, i64 16, i1 false)
  %13 = load %struct.patient*, %struct.patient** %4, align 8
  %14 = bitcast %struct.patient* %13 to i8*
  %15 = bitcast %struct.patient* %5 to i8*
  call void @llvm.memcpy.p0i8.p0i8.i64(i8* align 4 %14, i8* align 4 %15, i64 16, i1 false)
  ret void
}

; Function Attrs: argmemonly nounwind willreturn
declare void @llvm.memcpy.p0i8.p0i8.i64(i8* noalias nocapture writeonly, i8* noalias nocapture readonly, i64, i1 immarg) #1

; Function Attrs: noinline nounwind uwtable
define dso_local i32 @main() #0 {
  %1 = alloca i32, align 4
  %2 = alloca i32, align 4
  %3 = alloca i32, align 4
  %4 = alloca i32, align 4
  %5 = alloca i32, align 4
  %6 = alloca i32, align 4
  %7 = alloca %struct.patient, align 4
  %8 = alloca [120 x %struct.patient], align 16
  %9 = alloca [120 x %struct.patient], align 16
  store i32 0, i32* %1, align 4
  store i32 0, i32* %4, align 4
  store i32 0, i32* %5, align 4
  %10 = call i32 (i8*, ...) @__isoc99_scanf(i8* getelementptr inbounds ([3 x i8], [3 x i8]* @.str, i64 0, i64 0), i32* %2)
  store i32 0, i32* %3, align 4
  br label %11

11:                                               ; preds = %39, %0
  %12 = load i32, i32* %3, align 4
  %13 = load i32, i32* %2, align 4
  %14 = icmp slt i32 %12, %13
  br i1 %14, label %15, label %42

15:                                               ; preds = %11
  %16 = getelementptr inbounds %struct.patient, %struct.patient* %7, i32 0, i32 1
  %17 = getelementptr inbounds [12 x i8], [12 x i8]* %16, i64 0, i64 0
  %18 = call i32 (i8*, ...) @__isoc99_scanf(i8* getelementptr inbounds ([3 x i8], [3 x i8]* @.str.1, i64 0, i64 0), i8* %17)
  %19 = getelementptr inbounds %struct.patient, %struct.patient* %7, i32 0, i32 0
  %20 = call i32 (i8*, ...) @__isoc99_scanf(i8* getelementptr inbounds ([3 x i8], [3 x i8]* @.str, i64 0, i64 0), i32* %19)
  %21 = getelementptr inbounds %struct.patient, %struct.patient* %7, i32 0, i32 0
  %22 = load i32, i32* %21, align 4
  %23 = icmp sge i32 %22, 60
  br i1 %23, label %24, label %31

24:                                               ; preds = %15
  %25 = load i32, i32* %4, align 4
  %26 = add nsw i32 %25, 1
  store i32 %26, i32* %4, align 4
  %27 = sext i32 %25 to i64
  %28 = getelementptr inbounds [120 x %struct.patient], [120 x %struct.patient]* %9, i64 0, i64 %27
  %29 = bitcast %struct.patient* %28 to i8*
  %30 = bitcast %struct.patient* %7 to i8*
  call void @llvm.memcpy.p0i8.p0i8.i64(i8* align 16 %29, i8* align 4 %30, i64 16, i1 false)
  br label %38

31:                                               ; preds = %15
  %32 = load i32, i32* %5, align 4
  %33 = add nsw i32 %32, 1
  store i32 %33, i32* %5, align 4
  %34 = sext i32 %32 to i64
  %35 = getelementptr inbounds [120 x %struct.patient], [120 x %struct.patient]* %8, i64 0, i64 %34
  %36 = bitcast %struct.patient* %35 to i8*
  %37 = bitcast %struct.patient* %7 to i8*
  call void @llvm.memcpy.p0i8.p0i8.i64(i8* align 16 %36, i8* align 4 %37, i64 16, i1 false)
  br label %38

38:                                               ; preds = %31, %24
  br label %39

39:                                               ; preds = %38
  %40 = load i32, i32* %3, align 4
  %41 = add nsw i32 %40, 1
  store i32 %41, i32* %3, align 4
  br label %11

42:                                               ; preds = %11
  store i32 0, i32* %3, align 4
  br label %43

43:                                               ; preds = %81, %42
  %44 = load i32, i32* %3, align 4
  %45 = load i32, i32* %4, align 4
  %46 = icmp slt i32 %44, %45
  br i1 %46, label %47, label %84

47:                                               ; preds = %43
  store i32 0, i32* %6, align 4
  br label %48

48:                                               ; preds = %77, %47
  %49 = load i32, i32* %6, align 4
  %50 = load i32, i32* %4, align 4
  %51 = load i32, i32* %3, align 4
  %52 = sub nsw i32 %50, %51
  %53 = sub nsw i32 %52, 1
  %54 = icmp slt i32 %49, %53
  br i1 %54, label %55, label %80

55:                                               ; preds = %48
  %56 = load i32, i32* %6, align 4
  %57 = sext i32 %56 to i64
  %58 = getelementptr inbounds [120 x %struct.patient], [120 x %struct.patient]* %9, i64 0, i64 %57
  %59 = getelementptr inbounds %struct.patient, %struct.patient* %58, i32 0, i32 0
  %60 = load i32, i32* %59, align 16
  %61 = load i32, i32* %6, align 4
  %62 = add nsw i32 %61, 1
  %63 = sext i32 %62 to i64
  %64 = getelementptr inbounds [120 x %struct.patient], [120 x %struct.patient]* %9, i64 0, i64 %63
  %65 = getelementptr inbounds %struct.patient, %struct.patient* %64, i32 0, i32 0
  %66 = load i32, i32* %65, align 16
  %67 = icmp slt i32 %60, %66
  br i1 %67, label %68, label %76

68:                                               ; preds = %55
  %69 = load i32, i32* %6, align 4
  %70 = sext i32 %69 to i64
  %71 = getelementptr inbounds [120 x %struct.patient], [120 x %struct.patient]* %9, i64 0, i64 %70
  %72 = load i32, i32* %6, align 4
  %73 = add nsw i32 %72, 1
  %74 = sext i32 %73 to i64
  %75 = getelementptr inbounds [120 x %struct.patient], [120 x %struct.patient]* %9, i64 0, i64 %74
  call void @swap(%struct.patient* %71, %struct.patient* %75)
  br label %76

76:                                               ; preds = %68, %55
  br label %77

77:                                               ; preds = %76
  %78 = load i32, i32* %6, align 4
  %79 = add nsw i32 %78, 1
  store i32 %79, i32* %6, align 4
  br label %48

80:                                               ; preds = %48
  br label %81

81:                                               ; preds = %80
  %82 = load i32, i32* %3, align 4
  %83 = add nsw i32 %82, 1
  store i32 %83, i32* %3, align 4
  br label %43

84:                                               ; preds = %43
  store i32 0, i32* %3, align 4
  br label %85

85:                                               ; preds = %96, %84
  %86 = load i32, i32* %3, align 4
  %87 = load i32, i32* %4, align 4
  %88 = icmp slt i32 %86, %87
  br i1 %88, label %89, label %99

89:                                               ; preds = %85
  %90 = load i32, i32* %3, align 4
  %91 = sext i32 %90 to i64
  %92 = getelementptr inbounds [120 x %struct.patient], [120 x %struct.patient]* %9, i64 0, i64 %91
  %93 = getelementptr inbounds %struct.patient, %struct.patient* %92, i32 0, i32 1
  %94 = getelementptr inbounds [12 x i8], [12 x i8]* %93, i64 0, i64 0
  %95 = call i32 (i8*, ...) @printf(i8* getelementptr inbounds ([4 x i8], [4 x i8]* @.str.2, i64 0, i64 0), i8* %94)
  br label %96

96:                                               ; preds = %89
  %97 = load i32, i32* %3, align 4
  %98 = add nsw i32 %97, 1
  store i32 %98, i32* %3, align 4
  br label %85

99:                                               ; preds = %85
  store i32 0, i32* %3, align 4
  br label %100

100:                                              ; preds = %111, %99
  %101 = load i32, i32* %3, align 4
  %102 = load i32, i32* %5, align 4
  %103 = icmp slt i32 %101, %102
  br i1 %103, label %104, label %114

104:                                              ; preds = %100
  %105 = load i32, i32* %3, align 4
  %106 = sext i32 %105 to i64
  %107 = getelementptr inbounds [120 x %struct.patient], [120 x %struct.patient]* %8, i64 0, i64 %106
  %108 = getelementptr inbounds %struct.patient, %struct.patient* %107, i32 0, i32 1
  %109 = getelementptr inbounds [12 x i8], [12 x i8]* %108, i64 0, i64 0
  %110 = call i32 (i8*, ...) @printf(i8* getelementptr inbounds ([4 x i8], [4 x i8]* @.str.2, i64 0, i64 0), i8* %109)
  br label %111

111:                                              ; preds = %104
  %112 = load i32, i32* %3, align 4
  %113 = add nsw i32 %112, 1
  store i32 %113, i32* %3, align 4
  br label %100

114:                                              ; preds = %100
  ret i32 0
}

declare dso_local i32 @__isoc99_scanf(i8*, ...) #2

declare dso_local i32 @printf(i8*, ...) #2


!llvm.module.flags = !{!0}
!llvm.ident = !{!1}

!0 = !{i32 1, !"wchar_size", i32 4}
!1 = !{!"clang version 10.0.0-4ubuntu1 "}
